target datalayout = "e-m:e-p270:32:32-p271:32:32-p272:64:64-i64:64-i128:128-f80:128-n8:16:32:64-S128"
target triple = "x86_64-pc-linux-gnu"

%struct.AVCodecContext = type { ptr, i32, i32, ptr, i32, i32, ptr, ptr, ptr, i64, i32, i32, ptr, i32, %struct.AVRational, %struct.AVRational, %struct.AVRational, i32, i32, i32, i32, i32, %struct.AVRational, i32, i32, i32, i32, i32, i32, i32, i32, i32, i32, i32, ptr, ptr, i32, float, float, float, float, float, float, float, float, float, i32, i32, i32, i32, i32, i32, i32, i32, i32, i32, i32, i32, ptr, ptr, ptr, i32, i32, i32, i32, i32, i32, i32, i32, i32, i32, %struct.AVChannelLayout, i32, i32, i32, i32, i32, i32, i32, i32, ptr, i32, i32, i32, float, float, i32, i32, i32, i32, i32, ptr, i64, i64, float, float, i32, i32, ptr, ptr, i32, i32, i32, i32, i32, ptr, ptr, ptr, ptr, i32, i32, [8 x i64], i32, i32, i32, i32, i32, i32, i32, ptr, ptr, i32, i32, i32, i32, i32, i32, i32, i32, i32, i32, ptr, ptr, i32, i32, ptr, ptr, ptr, ptr, i32, i32, i64, i32, i32, i64, ptr, i64, ptr, i32, ptr, i32 }
%struct.AVRational = type { i32, i32 }
%struct.AVChannelLayout = type { i32, i32, %union.anon.1, ptr }
%union.anon.1 = type { i64 }
%struct.EXRContext = type { ptr, i32, i32, i32, i32, i32, float, ptr, ptr, %struct.PutByteContext, ptr, %struct.Float2HalfTables }
%struct.PutByteContext = type { ptr, ptr, ptr, i32 }
%struct.Float2HalfTables = type { [512 x i16], [512 x i8] }

@bgr_chlist = internal constant [4 x i8] c"BGRA", align 1
@gbr_order = internal constant [4 x i8] c"\01\00\02\00", align 1
@abgr_chlist = internal constant [4 x i8] c"ABGR", align 1
@gbra_order = internal constant [4 x i8] c"\03\01\00\02", align 1
@y_chlist = internal constant [4 x i8] c"Y\00\00\00", align 1
@y_order = internal constant [4 x i8] zeroinitializer, align 1
@.str.21 = private unnamed_addr constant [30 x i8] c"Assertion %s failed at %s:%d\0A\00", align 1
@.str.22 = private unnamed_addr constant [2 x i8] c"0\00", align 1
@.str.23 = private unnamed_addr constant [20 x i8] c"libavcodec/exrenc.c\00", align 1

; Function Attrs: cold nounwind optsize uwtable
define internal i32 @encode_init(ptr noundef %0) #0 {
  %2 = alloca i32, align 4
  %3 = alloca ptr, align 8
  %4 = alloca ptr, align 8
  %5 = alloca i32, align 4
  store ptr %0, ptr %3, align 8, !tbaa !4
  call void @llvm.lifetime.start.p0(i64 8, ptr %4) #8
  %6 = load ptr, ptr %3, align 8, !tbaa !4
  %7 = getelementptr inbounds nuw %struct.AVCodecContext, ptr %6, i32 0, i32 6
  %8 = load ptr, ptr %7, align 8, !tbaa !9
  store ptr %8, ptr %4, align 8, !tbaa !29
  %9 = load ptr, ptr %4, align 8, !tbaa !29
  %10 = getelementptr inbounds nuw %struct.EXRContext, ptr %9, i32 0, i32 11
  call void @ff_init_float2half_tables(ptr noundef %10)
  %11 = load ptr, ptr %3, align 8, !tbaa !4
  %12 = getelementptr inbounds nuw %struct.AVCodecContext, ptr %11, i32 0, i32 23
  %13 = load i32, ptr %12, align 8, !tbaa !31
  switch i32 %13, label %35 [
    i32 175, label %14
    i32 177, label %21
    i32 183, label %28
  ]

14:                                               ; preds = %1
  %15 = load ptr, ptr %4, align 8, !tbaa !29
  %16 = getelementptr inbounds nuw %struct.EXRContext, ptr %15, i32 0, i32 3
  store i32 3, ptr %16, align 8, !tbaa !32
  %17 = load ptr, ptr %4, align 8, !tbaa !29
  %18 = getelementptr inbounds nuw %struct.EXRContext, ptr %17, i32 0, i32 7
  store ptr @bgr_chlist, ptr %18, align 8, !tbaa !37
  %19 = load ptr, ptr %4, align 8, !tbaa !29
  %20 = getelementptr inbounds nuw %struct.EXRContext, ptr %19, i32 0, i32 8
  store ptr @gbr_order, ptr %20, align 8, !tbaa !38
  br label %39

21:                                               ; preds = %1
  %22 = load ptr, ptr %4, align 8, !tbaa !29
  %23 = getelementptr inbounds nuw %struct.EXRContext, ptr %22, i32 0, i32 3
  store i32 4, ptr %23, align 8, !tbaa !32
  %24 = load ptr, ptr %4, align 8, !tbaa !29
  %25 = getelementptr inbounds nuw %struct.EXRContext, ptr %24, i32 0, i32 7
  store ptr @abgr_chlist, ptr %25, align 8, !tbaa !37
  %26 = load ptr, ptr %4, align 8, !tbaa !29
  %27 = getelementptr inbounds nuw %struct.EXRContext, ptr %26, i32 0, i32 8
  store ptr @gbra_order, ptr %27, align 8, !tbaa !38
  br label %39

28:                                               ; preds = %1
  %29 = load ptr, ptr %4, align 8, !tbaa !29
  %30 = getelementptr inbounds nuw %struct.EXRContext, ptr %29, i32 0, i32 3
  store i32 1, ptr %30, align 8, !tbaa !32
  %31 = load ptr, ptr %4, align 8, !tbaa !29
  %32 = getelementptr inbounds nuw %struct.EXRContext, ptr %31, i32 0, i32 7
  store ptr @y_chlist, ptr %32, align 8, !tbaa !37
  %33 = load ptr, ptr %4, align 8, !tbaa !29
  %34 = getelementptr inbounds nuw %struct.EXRContext, ptr %33, i32 0, i32 8
  store ptr @y_order, ptr %34, align 8, !tbaa !38
  br label %39

35:                                               ; preds = %1
  br label %36

36:                                               ; preds = %35
  call void (ptr, i32, ptr, ...) @av_log(ptr noundef null, i32 noundef 0, ptr noundef @.str.21, ptr noundef @.str.22, ptr noundef @.str.23, i32 noundef 116)
  call void @abort() #9
  unreachable

37:                                               ; No predecessors!
  br label %38

38:                                               ; preds = %37
  br label %39

39:                                               ; preds = %38, %28, %21, %14
  %40 = load ptr, ptr %4, align 8, !tbaa !29
  %41 = getelementptr inbounds nuw %struct.EXRContext, ptr %40, i32 0, i32 1
  %42 = load i32, ptr %41, align 8, !tbaa !39
  switch i32 %42, label %68 [
    i32 0, label %43
    i32 1, label %43
    i32 2, label %43
    i32 3, label %51
  ]

43:                                               ; preds = %39, %39, %39
  %44 = load ptr, ptr %4, align 8, !tbaa !29
  %45 = getelementptr inbounds nuw %struct.EXRContext, ptr %44, i32 0, i32 5
  store i32 1, ptr %45, align 8, !tbaa !40
  %46 = load ptr, ptr %3, align 8, !tbaa !4
  %47 = getelementptr inbounds nuw %struct.AVCodecContext, ptr %46, i32 0, i32 19
  %48 = load i32, ptr %47, align 4, !tbaa !41
  %49 = load ptr, ptr %4, align 8, !tbaa !29
  %50 = getelementptr inbounds nuw %struct.EXRContext, ptr %49, i32 0, i32 4
  store i32 %48, ptr %50, align 4, !tbaa !42
  br label %72

51:                                               ; preds = %39
  %52 = load ptr, ptr %4, align 8, !tbaa !29
  %53 = getelementptr inbounds nuw %struct.EXRContext, ptr %52, i32 0, i32 5
  store i32 16, ptr %53, align 8, !tbaa !40
  %54 = load ptr, ptr %3, align 8, !tbaa !4
  %55 = getelementptr inbounds nuw %struct.AVCodecContext, ptr %54, i32 0, i32 19
  %56 = load i32, ptr %55, align 4, !tbaa !41
  %57 = load ptr, ptr %4, align 8, !tbaa !29
  %58 = getelementptr inbounds nuw %struct.EXRContext, ptr %57, i32 0, i32 5
  %59 = load i32, ptr %58, align 8, !tbaa !40
  %60 = add nsw i32 %56, %59
  %61 = sub nsw i32 %60, 1
  %62 = load ptr, ptr %4, align 8, !tbaa !29
  %63 = getelementptr inbounds nuw %struct.EXRContext, ptr %62, i32 0, i32 5
  %64 = load i32, ptr %63, align 8, !tbaa !40
  %65 = sdiv i32 %61, %64
  %66 = load ptr, ptr %4, align 8, !tbaa !29
  %67 = getelementptr inbounds nuw %struct.EXRContext, ptr %66, i32 0, i32 4
  store i32 %65, ptr %67, align 4, !tbaa !42
  br label %72

68:                                               ; preds = %39
  br label %69

69:                                               ; preds = %68
  call void (ptr, i32, ptr, ...) @av_log(ptr noundef null, i32 noundef 0, ptr noundef @.str.21, ptr noundef @.str.22, ptr noundef @.str.23, i32 noundef 131)
  call void @abort() #9
  unreachable

70:                                               ; No predecessors!
  br label %71

71:                                               ; preds = %70
  br label %72

72:                                               ; preds = %71, %51, %43
  %73 = load ptr, ptr %4, align 8, !tbaa !29
  %74 = getelementptr inbounds nuw %struct.EXRContext, ptr %73, i32 0, i32 4
  %75 = load i32, ptr %74, align 4, !tbaa !42
  %76 = sext i32 %75 to i64
  %77 = call noalias ptr @av_calloc(i64 noundef %76, i64 noundef 56)
  %78 = load ptr, ptr %4, align 8, !tbaa !29
  %79 = getelementptr inbounds nuw %struct.EXRContext, ptr %78, i32 0, i32 10
  store ptr %77, ptr %79, align 8, !tbaa !43
  %80 = load ptr, ptr %4, align 8, !tbaa !29
  %81 = getelementptr inbounds nuw %struct.EXRContext, ptr %80, i32 0, i32 10
  %82 = load ptr, ptr %81, align 8, !tbaa !43
  %83 = icmp ne ptr %82, null
  br i1 %83, label %85, label %84

84:                                               ; preds = %72
  store i32 -12, ptr %2, align 4
  store i32 1, ptr %5, align 4
  br label %86

85:                                               ; preds = %72
  store i32 0, ptr %2, align 4
  store i32 1, ptr %5, align 4
  br label %86

86:                                               ; preds = %85, %84
  call void @llvm.lifetime.end.p0(i64 8, ptr %4) #8
  %87 = load i32, ptr %2, align 4
  ret i32 %87
}