; Function Attrs: cold nounwind optsize uwtable
define internal range(i32 -12, 1) i32 @encode_init(ptr noundef readonly captures(none) %0) #0 {
  %2 = getelementptr inbounds nuw i8, ptr %0, i64 32
  %3 = load ptr, ptr %2, align 8, !tbaa !4
  %4 = getelementptr inbounds nuw i8, ptr %3, i64 88
  tail call void @ff_init_float2half_tables(ptr noundef nonnull %4) #7
  %5 = getelementptr inbounds nuw i8, ptr %0, i64 136
  %6 = load i32, ptr %5, align 8, !tbaa !27
  switch i32 %6, label %9 [
    i32 175, label %10
    i32 177, label %7
    i32 183, label %8
  ]

7:                                                ; preds = %1
  br label %10

8:                                                ; preds = %1
  br label %10

9:                                                ; preds = %1
  tail call void (ptr, i32, ptr, ...) @av_log(ptr noundef null, i32 noundef 0, ptr noundef nonnull @.str.21, ptr noundef nonnull @.str.22, ptr noundef nonnull @.str.23, i32 noundef 116) #7
  tail call void @abort() #8
  unreachable

10:                                               ; preds = %1, %8, %7
  %.sink = phi i32 [ 1, %8 ], [ 4, %7 ], [ 3, %1 ]
  %y_chlist.sink = phi ptr [ @y_chlist, %8 ], [ @abgr_chlist, %7 ], [ @bgr_chlist, %1 ]
  %y_order.sink = phi ptr [ @y_order, %8 ], [ @gbra_order, %7 ], [ @gbr_order, %1 ]
  %11 = getelementptr inbounds nuw i8, ptr %3, i64 16
  store i32 %.sink, ptr %11, align 8, !tbaa !28
  %12 = getelementptr inbounds nuw i8, ptr %3, i64 32
  store ptr %y_chlist.sink, ptr %12, align 8, !tbaa !33
  %13 = getelementptr inbounds nuw i8, ptr %3, i64 40
  store ptr %y_order.sink, ptr %13, align 8, !tbaa !34
  %14 = getelementptr inbounds nuw i8, ptr %3, i64 8
  %15 = load i32, ptr %14, align 8, !tbaa !35
  switch i32 %15, label %26 [
    i32 0, label %16
    i32 1, label %16
    i32 2, label %16
    i32 3, label %20
  ]

16:                                               ; preds = %10, %10, %10
  %17 = getelementptr inbounds nuw i8, ptr %3, i64 24
  store i32 1, ptr %17, align 8, !tbaa !36
  %18 = getelementptr inbounds nuw i8, ptr %0, i64 116
  %19 = load i32, ptr %18, align 4, !tbaa !37
  br label %27

20:                                               ; preds = %10
  %21 = getelementptr inbounds nuw i8, ptr %3, i64 24
  store i32 16, ptr %21, align 8, !tbaa !36
  %22 = getelementptr inbounds nuw i8, ptr %0, i64 116
  %23 = load i32, ptr %22, align 4, !tbaa !37
  %24 = add nsw i32 %23, 15
  %25 = sdiv i32 %24, 16
  br label %27

26:                                               ; preds = %10
  tail call void (ptr, i32, ptr, ...) @av_log(ptr noundef null, i32 noundef 0, ptr noundef nonnull @.str.21, ptr noundef nonnull @.str.22, ptr noundef nonnull @.str.23, i32 noundef 131) #7
  tail call void @abort() #8
  unreachable

27:                                               ; preds = %20, %16
  %.sink25 = phi i32 [ %25, %20 ], [ %19, %16 ]
  %28 = getelementptr inbounds nuw i8, ptr %3, i64 20
  store i32 %.sink25, ptr %28, align 4, !tbaa !38
  %29 = sext i32 %.sink25 to i64
  %30 = tail call noalias ptr @av_calloc(i64 noundef %29, i64 noundef 56) #7
  %31 = getelementptr inbounds nuw i8, ptr %3, i64 80
  store ptr %30, ptr %31, align 8, !tbaa !39
  %.not = icmp eq ptr %30, null
  %. = select i1 %.not, i32 -12, i32 0
  ret i32 %.
}